target datalayout = "e-m:e-p270:32:32-p271:32:32-p272:64:64-i64:64-i128:128-f80:128-n8:16:32:64-S128"
target triple = "x86_64-pc-linux-gnu"

%"struct.std::_Rb_tree_iterator" = type { ptr }
%"struct.std::_Rb_tree_node_base" = type { i32, ptr, ptr, ptr }
%"struct.google::protobuf::internal::ExtensionSet::Extension" = type { %union.anon.4, i8, i8, i8, i8, i32, ptr }
%union.anon.4 = type { i64 }
%"struct.google::protobuf::internal::ExtensionSet::KeyValue" = type { i32, %"struct.google::protobuf::internal::ExtensionSet::Extension" }
%"struct.std::pair.16" = type { i32, %"struct.google::protobuf::internal::ExtensionSet::Extension" }
%"struct.std::_Rb_tree_node" = type { %"struct.std::_Rb_tree_node_base", %"struct.__gnu_cxx::__aligned_membuf" }
%"struct.__gnu_cxx::__aligned_membuf" = type { [32 x i8] }

; Function Attrs: mustprogress nounwind uwtable
define linkonce_odr hidden noundef ptr @_ZN9__gnu_cxx16__aligned_membufISt4pairIKiN6google8protobuf8internal12ExtensionSet9ExtensionEEE7_M_addrEv(ptr noundef nonnull align 8 dereferenceable(32) %0) #4 comdat align 2 {
  %2 = alloca ptr, align 8
  store ptr %0, ptr %2, align 8, !tbaa !644
  %3 = load ptr, ptr %2, align 8
  %4 = getelementptr inbounds nuw %"struct.__gnu_cxx::__aligned_membuf", ptr %3, i32 0, i32 0
  ret ptr %4
}

; Function Attrs: mustprogress nounwind uwtable
define linkonce_odr hidden noundef ptr @_ZN9__gnu_cxx16__aligned_membufISt4pairIKiN6google8protobuf8internal12ExtensionSet9ExtensionEEE6_M_ptrEv(ptr noundef nonnull align 8 dereferenceable(32) %0) #4 comdat align 2 {
  %2 = alloca ptr, align 8
  store ptr %0, ptr %2, align 8, !tbaa !644
  %3 = load ptr, ptr %2, align 8
  %4 = call noundef ptr @_ZN9__gnu_cxx16__aligned_membufISt4pairIKiN6google8protobuf8internal12ExtensionSet9ExtensionEEE7_M_addrEv(ptr noundef nonnull align 8 dereferenceable(32) %3) #3
  ret ptr %4
}

; Function Attrs: inlinehint mustprogress nounwind uwtable
define linkonce_odr hidden noundef i64 @_ZSt10__distanceISt17_Rb_tree_iteratorISt4pairIKiN6google8protobuf8internal12ExtensionSet9ExtensionEEEENSt15iterator_traitsIT_E15difference_typeESB_SB_St18input_iterator_tag(ptr %0, ptr %1) #14 comdat {
  %3 = alloca %"struct.std::_Rb_tree_iterator", align 8
  %4 = alloca %"struct.std::_Rb_tree_iterator", align 8
  %5 = alloca i64, align 8
  %6 = getelementptr inbounds nuw %"struct.std::_Rb_tree_iterator", ptr %3, i32 0, i32 0
  store ptr %0, ptr %6, align 8
  %7 = getelementptr inbounds nuw %"struct.std::_Rb_tree_iterator", ptr %4, i32 0, i32 0
  store ptr %1, ptr %7, align 8
  call void @llvm.lifetime.start.p0(i64 8, ptr %5) #3
  store i64 0, ptr %5, align 8, !tbaa !52
  br label %8

8:                                                ; preds = %10, %2
  %9 = call noundef zeroext i1 @_ZStneRKSt17_Rb_tree_iteratorISt4pairIKiN6google8protobuf8internal12ExtensionSet9ExtensionEEESA_(ptr noundef nonnull align 8 dereferenceable(8) %3, ptr noundef nonnull align 8 dereferenceable(8) %4) #3
  br i1 %9, label %10, label %14

10:                                               ; preds = %8
  %11 = call noundef nonnull align 8 dereferenceable(8) ptr @_ZNSt17_Rb_tree_iteratorISt4pairIKiN6google8protobuf8internal12ExtensionSet9ExtensionEEEppEv(ptr noundef nonnull align 8 dereferenceable(8) %3) #3
  %12 = load i64, ptr %5, align 8, !tbaa !52
  %13 = add nsw i64 %12, 1
  store i64 %13, ptr %5, align 8, !tbaa !52
  br label %8, !llvm.loop !732

14:                                               ; preds = %8
  %15 = load i64, ptr %5, align 8, !tbaa !52
  call void @llvm.lifetime.end.p0(i64 8, ptr %5) #3
  ret i64 %15
}

; Function Attrs: inlinehint mustprogress nounwind uwtable
define linkonce_odr hidden void @_ZSt19__iterator_categoryISt17_Rb_tree_iteratorISt4pairIKiN6google8protobuf8internal12ExtensionSet9ExtensionEEEENSt15iterator_traitsIT_E17iterator_categoryERKSB_(ptr noundef nonnull align 8 dereferenceable(8) %0) #14 comdat {
  %2 = alloca ptr, align 8
  store ptr %0, ptr %2, align 8, !tbaa !396
  ret void
}

; Function Attrs: inlinehint mustprogress nounwind uwtable
define linkonce_odr hidden noundef i64 @_ZSt10__distanceIPN6google8protobuf8internal12ExtensionSet8KeyValueEENSt15iterator_traitsIT_E15difference_typeES7_S7_St26random_access_iterator_tag(ptr noundef %0, ptr noundef %1) #14 comdat {
  %3 = alloca ptr, align 8
  %4 = alloca ptr, align 8
  store ptr %0, ptr %3, align 8, !tbaa !56
  store ptr %1, ptr %4, align 8, !tbaa !56
  %5 = load ptr, ptr %4, align 8, !tbaa !56
  %6 = load ptr, ptr %3, align 8, !tbaa !56
  %7 = ptrtoint ptr %5 to i64
  %8 = ptrtoint ptr %6 to i64
  %9 = sub i64 %7, %8
  %10 = sdiv exact i64 %9, 32
  ret i64 %10
}

; Function Attrs: inlinehint mustprogress nounwind uwtable
define linkonce_odr hidden void @_ZSt19__iterator_categoryIPN6google8protobuf8internal12ExtensionSet8KeyValueEENSt15iterator_traitsIT_E17iterator_categoryERKS7_(ptr noundef nonnull align 8 dereferenceable(8) %0) #14 comdat {
  %2 = alloca ptr, align 8
  store ptr %0, ptr %2, align 8, !tbaa !729
  ret void
}

; Function Attrs: mustprogress nounwind uwtable
define linkonce_odr hidden noundef ptr @_ZNSt13_Rb_tree_nodeISt4pairIKiN6google8protobuf8internal12ExtensionSet9ExtensionEEE9_M_valptrEv(ptr noundef nonnull align 8 dereferenceable(64) %0) #4 comdat align 2 {
  %2 = alloca ptr, align 8
  store ptr %0, ptr %2, align 8, !tbaa !633
  %3 = load ptr, ptr %2, align 8
  %4 = getelementptr inbounds nuw %"struct.std::_Rb_tree_node", ptr %3, i32 0, i32 1
  %5 = call noundef ptr @_ZN9__gnu_cxx16__aligned_membufISt4pairIKiN6google8protobuf8internal12ExtensionSet9ExtensionEEE6_M_ptrEv(ptr noundef nonnull align 8 dereferenceable(32) %4) #3
  ret ptr %5
}

; Function Attrs: inlinehint mustprogress uwtable
define linkonce_odr hidden noundef i64 @_ZSt8distanceISt17_Rb_tree_iteratorISt4pairIKiN6google8protobuf8internal12ExtensionSet9ExtensionEEEENSt15iterator_traitsIT_E15difference_typeESB_SB_(ptr %0, ptr %1) #13 comdat {
  %3 = alloca %"struct.std::_Rb_tree_iterator", align 8
  %4 = alloca %"struct.std::_Rb_tree_iterator", align 8
  %5 = alloca %"struct.std::_Rb_tree_iterator", align 8
  %6 = alloca %"struct.std::_Rb_tree_iterator", align 8
  %7 = getelementptr inbounds nuw %"struct.std::_Rb_tree_iterator", ptr %3, i32 0, i32 0
  store ptr %0, ptr %7, align 8
  %8 = getelementptr inbounds nuw %"struct.std::_Rb_tree_iterator", ptr %4, i32 0, i32 0
  store ptr %1, ptr %8, align 8
  call void @llvm.memcpy.p0.p0.i64(ptr align 8 %5, ptr align 8 %3, i64 8, i1 false), !tbaa.struct !358
  call void @llvm.memcpy.p0.p0.i64(ptr align 8 %6, ptr align 8 %4, i64 8, i1 false), !tbaa.struct !358
  call void @_ZSt19__iterator_categoryISt17_Rb_tree_iteratorISt4pairIKiN6google8protobuf8internal12ExtensionSet9ExtensionEEEENSt15iterator_traitsIT_E17iterator_categoryERKSB_(ptr noundef nonnull align 8 dereferenceable(8) %3)
  %9 = getelementptr inbounds nuw %"struct.std::_Rb_tree_iterator", ptr %5, i32 0, i32 0
  %10 = load ptr, ptr %9, align 8
  %11 = getelementptr inbounds nuw %"struct.std::_Rb_tree_iterator", ptr %6, i32 0, i32 0
  %12 = load ptr, ptr %11, align 8
  %13 = call noundef i64 @_ZSt10__distanceISt17_Rb_tree_iteratorISt4pairIKiN6google8protobuf8internal12ExtensionSet9ExtensionEEEENSt15iterator_traitsIT_E15difference_typeESB_SB_St18input_iterator_tag(ptr %10, ptr %12)
  ret i64 %13
}

; Function Attrs: inlinehint mustprogress uwtable
define linkonce_odr hidden noundef i64 @_ZSt8distanceIPN6google8protobuf8internal12ExtensionSet8KeyValueEENSt15iterator_traitsIT_E15difference_typeES7_S7_(ptr noundef %0, ptr noundef %1) #13 comdat {
  %3 = alloca ptr, align 8
  %4 = alloca ptr, align 8
  store ptr %0, ptr %3, align 8, !tbaa !56
  store ptr %1, ptr %4, align 8, !tbaa !56
  %5 = load ptr, ptr %3, align 8, !tbaa !56
  %6 = load ptr, ptr %4, align 8, !tbaa !56
  call void @_ZSt19__iterator_categoryIPN6google8protobuf8internal12ExtensionSet8KeyValueEENSt15iterator_traitsIT_E17iterator_categoryERKS7_(ptr noundef nonnull align 8 dereferenceable(8) %3)
  %7 = call noundef i64 @_ZSt10__distanceIPN6google8protobuf8internal12ExtensionSet8KeyValueEENSt15iterator_traitsIT_E15difference_typeES7_S7_St26random_access_iterator_tag(ptr noundef %5, ptr noundef %6)
  ret i64 %7
}

; Function Attrs: mustprogress nounwind uwtable
define linkonce_odr hidden noundef nonnull align 8 dereferenceable(8) ptr @_ZNSt17_Rb_tree_iteratorISt4pairIKiN6google8protobuf8internal12ExtensionSet9ExtensionEEEppEv(ptr noundef nonnull align 8 dereferenceable(8) %0) #4 comdat align 2 {
  %2 = alloca ptr, align 8
  store ptr %0, ptr %2, align 8, !tbaa !396
  %3 = load ptr, ptr %2, align 8
  %4 = getelementptr inbounds nuw %"struct.std::_Rb_tree_iterator", ptr %3, i32 0, i32 0
  %5 = load ptr, ptr %4, align 8, !tbaa !398
  %6 = call noundef ptr @_ZSt18_Rb_tree_incrementPSt18_Rb_tree_node_base(ptr noundef %5) #27
  %7 = getelementptr inbounds nuw %"struct.std::_Rb_tree_iterator", ptr %3, i32 0, i32 0
  store ptr %6, ptr %7, align 8, !tbaa !398
  ret ptr %3
}

; Function Attrs: mustprogress nounwind uwtable
define linkonce_odr hidden noundef ptr @_ZNKSt17_Rb_tree_iteratorISt4pairIKiN6google8protobuf8internal12ExtensionSet9ExtensionEEEptEv(ptr noundef nonnull align 8 dereferenceable(8) %0) #4 comdat align 2 {
  %2 = alloca ptr, align 8
  store ptr %0, ptr %2, align 8, !tbaa !396
  %3 = load ptr, ptr %2, align 8
  %4 = getelementptr inbounds nuw %"struct.std::_Rb_tree_iterator", ptr %3, i32 0, i32 0
  %5 = load ptr, ptr %4, align 8, !tbaa !398
  %6 = call noundef ptr @_ZNSt13_Rb_tree_nodeISt4pairIKiN6google8protobuf8internal12ExtensionSet9ExtensionEEE9_M_valptrEv(ptr noundef nonnull align 8 dereferenceable(64) %5)
  ret ptr %6
}

; Function Attrs: mustprogress nounwind uwtable
define linkonce_odr noundef zeroext i1 @_ZStneRKSt17_Rb_tree_iteratorISt4pairIKiN6google8protobuf8internal12ExtensionSet9ExtensionEEESA_(ptr noundef nonnull align 8 dereferenceable(8) %0, ptr noundef nonnull align 8 dereferenceable(8) %1) #4 comdat {
  %3 = alloca ptr, align 8
  %4 = alloca ptr, align 8
  store ptr %0, ptr %3, align 8, !tbaa !396
  store ptr %1, ptr %4, align 8, !tbaa !396
  %5 = load ptr, ptr %3, align 8, !tbaa !396
  %6 = getelementptr inbounds nuw %"struct.std::_Rb_tree_iterator", ptr %5, i32 0, i32 0
  %7 = load ptr, ptr %6, align 8, !tbaa !398
  %8 = load ptr, ptr %4, align 8, !tbaa !396
  %9 = getelementptr inbounds nuw %"struct.std::_Rb_tree_iterator", ptr %8, i32 0, i32 0
  %10 = load ptr, ptr %9, align 8, !tbaa !398
  %11 = icmp ne ptr %7, %10
  ret i1 %11
}

; Function Attrs: mustprogress uwtable
define internal noundef i64 @_ZN6google8protobuf8internal12_GLOBAL__N_111SizeOfUnionIPNS1_12ExtensionSet8KeyValueESt17_Rb_tree_iteratorISt4pairIKiNS4_9ExtensionEEEEEmT_SD_T0_SE_(ptr noundef %0, ptr noundef %1, ptr %2, ptr %3) #6 {
  %5 = alloca %"struct.std::_Rb_tree_iterator", align 8
  %6 = alloca %"struct.std::_Rb_tree_iterator", align 8
  %7 = alloca ptr, align 8
  %8 = alloca ptr, align 8
  %9 = alloca i64, align 8
  %10 = alloca %"struct.std::_Rb_tree_iterator", align 8
  %11 = alloca %"struct.std::_Rb_tree_iterator", align 8
  %12 = getelementptr inbounds nuw %"struct.std::_Rb_tree_iterator", ptr %5, i32 0, i32 0
  store ptr %2, ptr %12, align 8
  %13 = getelementptr inbounds nuw %"struct.std::_Rb_tree_iterator", ptr %6, i32 0, i32 0
  store ptr %3, ptr %13, align 8
  store ptr %0, ptr %7, align 8, !tbaa !56
  store ptr %1, ptr %8, align 8, !tbaa !56
  call void @llvm.lifetime.start.p0(i64 8, ptr %9) #3
  store i64 0, ptr %9, align 8, !tbaa !52
  br label %14

14:                                               ; preds = %50, %4
  %15 = load ptr, ptr %7, align 8, !tbaa !56
  %16 = load ptr, ptr %8, align 8, !tbaa !56
  %17 = icmp ne ptr %15, %16
  br i1 %17, label %18, label %20

18:                                               ; preds = %14
  %19 = call noundef zeroext i1 @_ZStneRKSt17_Rb_tree_iteratorISt4pairIKiN6google8protobuf8internal12ExtensionSet9ExtensionEEESA_(ptr noundef nonnull align 8 dereferenceable(8) %5, ptr noundef nonnull align 8 dereferenceable(8) %6) #3
  br label %20

20:                                               ; preds = %18, %14
  %21 = phi i1 [ false, %14 ], [ %19, %18 ]
  br i1 %21, label %22, label %51

22:                                               ; preds = %20
  %23 = load i64, ptr %9, align 8, !tbaa !52
  %24 = add i64 %23, 1
  store i64 %24, ptr %9, align 8, !tbaa !52
  %25 = load ptr, ptr %7, align 8, !tbaa !56
  %26 = getelementptr inbounds nuw %"struct.google::protobuf::internal::ExtensionSet::KeyValue", ptr %25, i32 0, i32 0
  %27 = load i32, ptr %26, align 8, !tbaa !65
  %28 = call noundef ptr @_ZNKSt17_Rb_tree_iteratorISt4pairIKiN6google8protobuf8internal12ExtensionSet9ExtensionEEEptEv(ptr noundef nonnull align 8 dereferenceable(8) %5) #3
  %29 = getelementptr inbounds nuw %"struct.std::pair.16", ptr %28, i32 0, i32 0
  %30 = load i32, ptr %29, align 8, !tbaa !365
  %31 = icmp slt i32 %27, %30
  br i1 %31, label %32, label %35

32:                                               ; preds = %22
  %33 = load ptr, ptr %7, align 8, !tbaa !56
  %34 = getelementptr inbounds nuw %"struct.google::protobuf::internal::ExtensionSet::KeyValue", ptr %33, i32 1
  store ptr %34, ptr %7, align 8, !tbaa !56
  br label %50

35:                                               ; preds = %22
  %36 = load ptr, ptr %7, align 8, !tbaa !56
  %37 = getelementptr inbounds nuw %"struct.google::protobuf::internal::ExtensionSet::KeyValue", ptr %36, i32 0, i32 0
  %38 = load i32, ptr %37, align 8, !tbaa !65
  %39 = call noundef ptr @_ZNKSt17_Rb_tree_iteratorISt4pairIKiN6google8protobuf8internal12ExtensionSet9ExtensionEEEptEv(ptr noundef nonnull align 8 dereferenceable(8) %5) #3
  %40 = getelementptr inbounds nuw %"struct.std::pair.16", ptr %39, i32 0, i32 0
  %41 = load i32, ptr %40, align 8, !tbaa !365
  %42 = icmp eq i32 %38, %41
  br i1 %42, label %43, label %47

43:                                               ; preds = %35
  %44 = load ptr, ptr %7, align 8, !tbaa !56
  %45 = getelementptr inbounds nuw %"struct.google::protobuf::internal::ExtensionSet::KeyValue", ptr %44, i32 1
  store ptr %45, ptr %7, align 8, !tbaa !56
  %46 = call noundef nonnull align 8 dereferenceable(8) ptr @_ZNSt17_Rb_tree_iteratorISt4pairIKiN6google8protobuf8internal12ExtensionSet9ExtensionEEEppEv(ptr noundef nonnull align 8 dereferenceable(8) %5) #3
  br label %49

47:                                               ; preds = %35
  %48 = call noundef nonnull align 8 dereferenceable(8) ptr @_ZNSt17_Rb_tree_iteratorISt4pairIKiN6google8protobuf8internal12ExtensionSet9ExtensionEEEppEv(ptr noundef nonnull align 8 dereferenceable(8) %5) #3
  br label %49

49:                                               ; preds = %47, %43
  br label %50

50:                                               ; preds = %49, %32
  br label %14, !llvm.loop !367

51:                                               ; preds = %20
  %52 = load ptr, ptr %7, align 8, !tbaa !56
  %53 = load ptr, ptr %8, align 8, !tbaa !56
  %54 = call noundef i64 @_ZSt8distanceIPN6google8protobuf8internal12ExtensionSet8KeyValueEENSt15iterator_traitsIT_E15difference_typeES7_S7_(ptr noundef %52, ptr noundef %53)
  %55 = load i64, ptr %9, align 8, !tbaa !52
  %56 = add i64 %55, %54
  store i64 %56, ptr %9, align 8, !tbaa !52
  call void @llvm.memcpy.p0.p0.i64(ptr align 8 %10, ptr align 8 %5, i64 8, i1 false), !tbaa.struct !358
  call void @llvm.memcpy.p0.p0.i64(ptr align 8 %11, ptr align 8 %6, i64 8, i1 false), !tbaa.struct !358
  %57 = getelementptr inbounds nuw %"struct.std::_Rb_tree_iterator", ptr %10, i32 0, i32 0
  %58 = load ptr, ptr %57, align 8
  %59 = getelementptr inbounds nuw %"struct.std::_Rb_tree_iterator", ptr %11, i32 0, i32 0
  %60 = load ptr, ptr %59, align 8
  %61 = call noundef i64 @_ZSt8distanceISt17_Rb_tree_iteratorISt4pairIKiN6google8protobuf8internal12ExtensionSet9ExtensionEEEENSt15iterator_traitsIT_E15difference_typeESB_SB_(ptr %58, ptr %60)
  %62 = load i64, ptr %9, align 8, !tbaa !52
  %63 = add i64 %62, %61
  store i64 %63, ptr %9, align 8, !tbaa !52
  %64 = load i64, ptr %9, align 8, !tbaa !52
  call void @llvm.lifetime.end.p0(i64 8, ptr %9) #3
  ret i64 %64
}