; Function Attrs: mustprogress nofree nounwind willreturn memory(read) uwtable
define internal fastcc noundef i64 @_ZN6google8protobuf8internal12_GLOBAL__N_111SizeOfUnionIPNS1_12ExtensionSet8KeyValueESt17_Rb_tree_iteratorISt4pairIKiNS4_9ExtensionEEEEEmT_SD_T0_SE_(ptr noundef %0, ptr noundef %1, ptr readonly %2, ptr readnone %3) unnamed_addr #16 {
  %.not18 = icmp ne ptr %0, %1
  %5 = icmp ne ptr %2, %3
  %or.cond19 = select i1 %.not18, i1 %5, i1 false
  br i1 %or.cond19, label %.lr.ph, label %.critedge

.lr.ph:                                           ; preds = %4, %20
  %.022 = phi ptr [ %.1, %20 ], [ %0, %4 ]
  %.01221 = phi i64 [ %6, %20 ], [ 0, %4 ]
  %.sroa.013.020 = phi ptr [ %.sroa.013.1, %20 ], [ %2, %4 ]
  %6 = add i64 %.01221, 1
  %7 = load i32, ptr %.022, align 8, !tbaa !74
  %8 = getelementptr inbounds nuw i8, ptr %.sroa.013.020, i64 32
  %9 = load i32, ptr %8, align 8, !tbaa !156
  %10 = icmp slt i32 %7, %9
  br i1 %10, label %11, label %13

11:                                               ; preds = %.lr.ph
  %12 = getelementptr inbounds nuw i8, ptr %.022, i64 32
  br label %20

13:                                               ; preds = %.lr.ph
  %14 = icmp eq i32 %7, %9
  br i1 %14, label %15, label %18

15:                                               ; preds = %13
  %16 = getelementptr inbounds nuw i8, ptr %.022, i64 32
  %17 = tail call noundef ptr @_ZSt18_Rb_tree_incrementPSt18_Rb_tree_node_base(ptr noundef nonnull %.sroa.013.020) #34
  br label %20

18:                                               ; preds = %13
  %19 = tail call noundef ptr @_ZSt18_Rb_tree_incrementPSt18_Rb_tree_node_base(ptr noundef nonnull %.sroa.013.020) #34
  br label %20

20:                                               ; preds = %15, %18, %11
  %.sroa.013.1 = phi ptr [ %.sroa.013.020, %11 ], [ %17, %15 ], [ %19, %18 ]
  %.1 = phi ptr [ %12, %11 ], [ %16, %15 ], [ %.022, %18 ]
  %.not = icmp ne ptr %.1, %1
  %21 = icmp ne ptr %.sroa.013.1, %3
  %or.cond = select i1 %.not, i1 %21, i1 false
  br i1 %or.cond, label %.lr.ph, label %.critedge, !llvm.loop !160

.critedge:                                        ; preds = %20, %4
  %.sroa.013.0.lcssa = phi ptr [ %2, %4 ], [ %.sroa.013.1, %20 ]
  %.012.lcssa = phi i64 [ 0, %4 ], [ %6, %20 ]
  %.0.lcssa = phi ptr [ %0, %4 ], [ %.1, %20 ]
  %.not4.i.i = icmp eq ptr %.sroa.013.0.lcssa, %3
  br i1 %.not4.i.i, label %_ZSt8distanceISt17_Rb_tree_iteratorISt4pairIKiN6google8protobuf8internal12ExtensionSet9ExtensionEEEENSt15iterator_traitsIT_E15difference_typeESB_SB_.exit, label %.lr.ph.i.i

.lr.ph.i.i:                                       ; preds = %.critedge, %.lr.ph.i.i
  %.06.i.i = phi i64 [ %23, %.lr.ph.i.i ], [ 0, %.critedge ]
  %.sroa.02.05.i.i = phi ptr [ %22, %.lr.ph.i.i ], [ %.sroa.013.0.lcssa, %.critedge ]
  %22 = tail call noundef ptr @_ZSt18_Rb_tree_incrementPSt18_Rb_tree_node_base(ptr noundef %.sroa.02.05.i.i) #34
  %23 = add nuw nsw i64 %.06.i.i, 1
  %.not.i.i = icmp eq ptr %22, %3
  br i1 %.not.i.i, label %_ZSt8distanceISt17_Rb_tree_iteratorISt4pairIKiN6google8protobuf8internal12ExtensionSet9ExtensionEEEENSt15iterator_traitsIT_E15difference_typeESB_SB_.exit, label %.lr.ph.i.i, !llvm.loop !161

_ZSt8distanceISt17_Rb_tree_iteratorISt4pairIKiN6google8protobuf8internal12ExtensionSet9ExtensionEEEENSt15iterator_traitsIT_E15difference_typeESB_SB_.exit: ; preds = %.lr.ph.i.i, %.critedge
  %.0.lcssa.i.i = phi i64 [ 0, %.critedge ], [ %23, %.lr.ph.i.i ]
  %24 = ptrtoint ptr %1 to i64
  %25 = ptrtoint ptr %.0.lcssa to i64
  %26 = sub i64 %24, %25
  %27 = ashr exact i64 %26, 5
  %28 = add i64 %27, %.012.lcssa
  %29 = add i64 %28, %.0.lcssa.i.i
  ret i64 %29
}